target datalayout = "e-m:e-p270:32:32-p271:32:32-p272:64:64-i64:64-i128:128-f80:128-n8:16:32:64-S128"
target triple = "x86_64-unknown-linux-gnu"

%struct.NvmeCtrl = type { %struct.PCIDevice, %struct.MemoryRegion, %struct.MemoryRegion, %struct.NvmeBar, %struct.NvmeParams, %struct.NvmeBus, i16, i8, i32, i16, i16, i32, i8, i32, i32, i64, i64, i64, i16, i8, i32, i32, i64, i64, i8, %struct.anon, %struct.anon.4, i8, ptr, %union.anon.5, i32, i32, [5 x i64], ptr, %struct.NvmeNamespace, [257 x ptr], ptr, ptr, %struct.NvmeSQueue, %struct.NvmeCQueue, %struct.NvmeIdCtrl, %struct.anon.22, %struct.NvmePriCtrlCap, %struct.NvmeSecCtrlList, %struct.anon.24 }
%struct.PCIDevice = type { %struct.DeviceState, i8, i8, ptr, ptr, ptr, ptr, ptr, i32, %struct.PCIReqIDCache, [64 x i8], [7 x %struct.PCIIORegion], %struct.AddressSpace, %struct.MemoryRegion, %struct.MemoryRegion, ptr, ptr, [3 x ptr], i8, i8, i32, i8, i32, ptr, ptr, ptr, ptr, ptr, ptr, %struct.MemoryRegion, %struct.MemoryRegion, %struct.MemoryRegion, ptr, i8, i32, i8, %struct.PCIExpressDevice, ptr, ptr, i32, i8, %struct.MemoryRegion, i32, ptr, ptr, ptr, ptr, ptr, i32 }
%struct.DeviceState = type { %struct.Object, ptr, ptr, i8, i8, i64, ptr, i32, i8, ptr, %struct.NamedGPIOListHead, %struct.NamedClockListHead, %struct.BusStateHead, i32, i32, i32, %struct.ResettableState, ptr, %struct.MemReentrancyGuard }
%struct.Object = type { ptr, ptr, ptr, i32, ptr }
%struct.NamedGPIOListHead = type { ptr }
%struct.NamedClockListHead = type { ptr }
%struct.BusStateHead = type { ptr }
%struct.ResettableState = type { i32, i8, i8 }
%struct.MemReentrancyGuard = type { i8 }
%struct.PCIReqIDCache = type { ptr, i32 }
%struct.PCIIORegion = type { i64, i64, i8, ptr, ptr }
%struct.AddressSpace = type { %struct.rcu_head, ptr, ptr, ptr, i32, i32, ptr, %union.anon, %union.anon.0 }
%struct.rcu_head = type { ptr, ptr }
%union.anon = type { %struct.QTailQLink }
%struct.QTailQLink = type { ptr, ptr }
%union.anon.0 = type { %struct.QTailQLink }
%struct.PCIExpressDevice = type { i8, i8, i8, i16, %struct.PCIEAERLog, i16, i16, i16, %struct.PCIESriovPF, %struct.PCIESriovVF }
%struct.PCIEAERLog = type { i16, i16, ptr }
%struct.PCIESriovPF = type { i16, [7 x i8], ptr, ptr }
%struct.PCIESriovVF = type { ptr, i16 }
%struct.MemoryRegion = type { %struct.Object, i8, i8, i8, i8, i8, i8, i8, i8, i8, i8, ptr, ptr, ptr, ptr, ptr, ptr, i32, i128, i64, ptr, i64, i8, i8, i8, i8, i8, ptr, i64, i32, %union.anon.1, %union.anon.2, %union.anon.3, ptr, i32, ptr, ptr, i8 }
%union.anon.1 = type { %struct.QTailQLink }
%union.anon.2 = type { %struct.QTailQLink }
%union.anon.3 = type { %struct.QTailQLink }
%struct.NvmeBar = type { i64, i32, i32, i32, i32, [4 x i8], i32, i32, i32, i64, i64, i32, i32, i32, i32, i64, i64, i32, [3492 x i8], i32, i32, i32, i32, i32, i32, i32, [484 x i8] }
%struct.NvmeParams = type { ptr, i32, i32, i16, i32, i8, i32, i8, i8, i8, i8, i8, i8, i8, i8, i16, i16, i8, i8 }
%struct.NvmeBus = type { %struct.BusState }
%struct.BusState = type { %struct.Object, ptr, ptr, ptr, i32, i8, i8, i32, %union.BusChildHead, %struct.BusStateEntry, %struct.ResettableState }
%union.BusChildHead = type { %struct.QTailQLink }
%struct.BusStateEntry = type { ptr, ptr }
%struct.anon = type { %struct.MemoryRegion, ptr, i8, i64 }
%struct.anon.4 = type { ptr, i8, i64 }
%union.anon.5 = type { %struct.QTailQLink }
%struct.NvmeNamespace = type { %struct.DeviceState, %struct.BlockConf, i32, i64, i64, %struct.NvmeIdNs, %struct.NvmeIdNsNvm, %struct.NvmeLBAF, i32, i64, ptr, i8, i16, i32, i8, %struct.anon.6, %union.anon.7, ptr, ptr, %union.anon.8, %union.anon.9, %union.anon.10, %union.anon.11, i32, i64, i64, i32, ptr, i32, i32, %struct.NvmeNamespaceParams, ptr, ptr, %struct.anon.15, %struct.anon.16 }
%struct.BlockConf = type { ptr, i32, i32, i32, i32, i32, i32, i32, i32, i32, i32, i32, i32, i32, i32, i8, i32, i32, i32, i32 }
%struct.NvmeIdNs = type { i64, i64, i64, i8, i8, i8, i8, i8, i8, i8, i8, i8, i8, i16, i16, i16, i16, i16, i16, i16, [16 x i8], i16, i16, i16, i16, i16, i16, i32, i8, [18 x i8], i8, i16, i16, [16 x i8], i64, [64 x %struct.NvmeLBAF], [3712 x i8] }
%struct.NvmeIdNsNvm = type { i64, i8, [3 x i8], [64 x i32], [3828 x i8] }
%struct.NvmeLBAF = type { i16, i8, i8 }
%struct.anon.6 = type { i16, i16, i32 }
%union.anon.7 = type { %struct.QTailQLink }
%union.anon.8 = type { %struct.QTailQLink }
%union.anon.9 = type { %struct.QTailQLink }
%union.anon.10 = type { %struct.QTailQLink }
%union.anon.11 = type { %struct.QTailQLink }
%struct.NvmeNamespaceParams = type { i8, i8, i32, %struct.QemuUUID, i64, i8, i16, i8, i8, i8, i8, i16, i32, i8, i8, i8, i64, i64, i32, i32, i32, i32, i64, i64, %struct.anon.14 }
%struct.QemuUUID = type { %union.anon.12 }
%union.anon.12 = type { %struct.anon.13 }
%struct.anon.13 = type { i32, i16, i16, i8, i8, [6 x i8] }
%struct.anon.14 = type { ptr }
%struct.anon.15 = type { i32 }
%struct.anon.16 = type { i16, ptr }
%struct.NvmeSQueue = type { ptr, i16, i16, i32, i32, i32, i64, i64, i64, ptr, %struct.EventNotifier, i8, ptr, %union.anon.17, %union.anon.18, %union.anon.19 }
%struct.EventNotifier = type { i32, i32, i8 }
%union.anon.17 = type { %struct.QTailQLink }
%union.anon.18 = type { %struct.QTailQLink }
%union.anon.19 = type { %struct.QTailQLink }
%struct.NvmeCQueue = type { ptr, i8, i16, i16, i32, i32, i32, i32, i64, i64, i64, ptr, %struct.EventNotifier, i8, %union.anon.20, %union.anon.21 }
%union.anon.20 = type { %struct.QTailQLink }
%union.anon.21 = type { %struct.QTailQLink }
%struct.NvmeIdCtrl = type { i16, i16, [20 x i8], [40 x i8], [8 x i8], i8, [3 x i8], i8, i8, i16, i32, i32, i32, i32, i32, [11 x i8], i8, [16 x i8], [128 x i8], i16, i8, i8, i8, i8, i8, i8, i8, i8, i16, i16, i16, i32, i32, [16 x i8], [16 x i8], i32, i16, i8, i8, i16, i16, i16, i16, i32, [6 x i8], i16, i16, [170 x i8], i8, i8, i16, i32, i16, i16, i8, i8, i16, i16, i8, i8, i16, i16, i32, [228 x i8], [256 x i8], [1024 x i8], [32 x %struct.NvmePSD], [1024 x i8] }
%struct.NvmePSD = type { i16, i16, i32, i32, i8, i8, i8, i8, [16 x i8] }
%struct.anon.22 = type { %struct.anon.23, i32, %struct.NvmeHostBehaviorSupport }
%struct.anon.23 = type { i16, i16 }
%struct.NvmeHostBehaviorSupport = type { i8, i8, i8, [509 x i8] }
%struct.NvmePriCtrlCap = type { i16, i16, i8, [27 x i8], i32, i32, i16, i16, i16, i16, [16 x i8], i32, i32, i16, i16, i16, i16, [4016 x i8] }
%struct.NvmeSecCtrlList = type { i8, [31 x i8], [127 x %struct.NvmeSecCtrlEntry] }
%struct.NvmeSecCtrlEntry = type { i16, i16, i8, [3 x i8], i16, i16, i16, [18 x i8] }
%struct.anon.24 = type { i16, i16 }
%struct.NvmeSubsystem = type { %struct.DeviceState, %struct.NvmeBus, [256 x i8], ptr, [256 x ptr], [257 x ptr], %struct.NvmeEnduranceGroup, %struct.anon.26 }
%struct.NvmeEnduranceGroup = type { i8, %struct.anon.25 }
%struct.anon.25 = type { %struct.NvmeFdpEventBuffer, %struct.NvmeFdpEventBuffer, i16, i16, i8, i64, i64, i64, i64, i8, ptr }
%struct.NvmeFdpEventBuffer = type { [63 x %struct.NvmeFdpEvent], i32, i32, i32 }
%struct.NvmeFdpEvent = type <{ i8, i8, i16, i64, i32, [2 x i64], i16, i8, [5 x i8], [3 x i64] }>
%struct.anon.26 = type { ptr, %struct.anon.27 }
%struct.anon.27 = type { i8, i64, i16, i32 }

@.str = private unnamed_addr constant [25 x i8] c"../qemu/hw/nvme/subsys.c\00", align 1
@.str.6 = private unnamed_addr constant [42 x i8] c"subsys->ctrls[cntlid] == SUBSYS_SLOT_RSVD\00", align 1
@__PRETTY_FUNCTION__.nvme_subsys_unreserve_cntlids = private unnamed_addr constant [47 x i8] c"void nvme_subsys_unreserve_cntlids(NvmeCtrl *)\00", align 1

; Function Attrs: nounwind sspstrong uwtable
define internal zeroext i16 @le16_to_cpu(i16 noundef zeroext %v) #0 {
entry:
  %v.addr = alloca i16, align 2
  store i16 %v, ptr %v.addr, align 2
  %0 = load i16, ptr %v.addr, align 2
  ret i16 %0
}

; Function Attrs: nounwind sspstrong uwtable
define internal void @nvme_subsys_unreserve_cntlids(ptr noundef %n) #0 {
entry:
  %n.addr = alloca ptr, align 8
  %subsys = alloca ptr, align 8
  %list = alloca ptr, align 8
  %sctrl = alloca ptr, align 8
  %i = alloca i32, align 4
  %cntlid = alloca i32, align 4
  store ptr %n, ptr %n.addr, align 8
  %0 = load ptr, ptr %n.addr, align 8
  %subsys1 = getelementptr inbounds %struct.NvmeCtrl, ptr %0, i32 0, i32 33
  %1 = load ptr, ptr %subsys1, align 8
  store ptr %1, ptr %subsys, align 8
  %2 = load ptr, ptr %n.addr, align 8
  %sec_ctrl_list = getelementptr inbounds %struct.NvmeCtrl, ptr %2, i32 0, i32 43
  store ptr %sec_ctrl_list, ptr %list, align 8
  store i32 0, ptr %i, align 4
  br label %for.cond

for.cond:                                         ; preds = %for.inc, %entry
  %3 = load i32, ptr %i, align 4
  %4 = load ptr, ptr %n.addr, align 8
  %params = getelementptr inbounds %struct.NvmeCtrl, ptr %4, i32 0, i32 4
  %sriov_max_vfs = getelementptr inbounds %struct.NvmeParams, ptr %params, i32 0, i32 14
  %5 = load i8, ptr %sriov_max_vfs, align 1
  %conv = zext i8 %5 to i32
  %cmp = icmp slt i32 %3, %conv
  br i1 %cmp, label %for.body, label %for.end

for.body:                                         ; preds = %for.cond
  %6 = load ptr, ptr %list, align 8
  %sec = getelementptr inbounds %struct.NvmeSecCtrlList, ptr %6, i32 0, i32 2
  %7 = load i32, ptr %i, align 4
  %idxprom = sext i32 %7 to i64
  %arrayidx = getelementptr [127 x %struct.NvmeSecCtrlEntry], ptr %sec, i64 0, i64 %idxprom
  store ptr %arrayidx, ptr %sctrl, align 8
  %8 = load ptr, ptr %sctrl, align 8
  %scid = getelementptr inbounds %struct.NvmeSecCtrlEntry, ptr %8, i32 0, i32 0
  %9 = load i16, ptr %scid, align 1
  %call = call zeroext i16 @le16_to_cpu(i16 noundef zeroext %9)
  %conv3 = zext i16 %call to i32
  store i32 %conv3, ptr %cntlid, align 4
  %10 = load i32, ptr %cntlid, align 4
  %tobool = icmp ne i32 %10, 0
  br i1 %tobool, label %if.then, label %if.end13

if.then:                                          ; preds = %for.body
  %11 = load ptr, ptr %subsys, align 8
  %ctrls = getelementptr inbounds %struct.NvmeSubsystem, ptr %11, i32 0, i32 4
  %12 = load i32, ptr %cntlid, align 4
  %idxprom4 = sext i32 %12 to i64
  %arrayidx5 = getelementptr [256 x ptr], ptr %ctrls, i64 0, i64 %idxprom4
  %13 = load ptr, ptr %arrayidx5, align 8
  %14 = inttoptr i64 65535 to ptr
  %cmp6 = icmp eq ptr %13, %14
  br i1 %cmp6, label %if.then8, label %if.else

if.then8:                                         ; preds = %if.then
  br label %if.end

if.else:                                          ; preds = %if.then
  call void @__assert_fail(ptr noundef @.str.6, ptr noundef @.str, i32 noundef 48, ptr noundef @__PRETTY_FUNCTION__.nvme_subsys_unreserve_cntlids) #9
  unreachable

if.end:                                           ; preds = %if.then8
  %15 = load ptr, ptr %subsys, align 8
  %ctrls9 = getelementptr inbounds %struct.NvmeSubsystem, ptr %15, i32 0, i32 4
  %16 = load i32, ptr %cntlid, align 4
  %idxprom10 = sext i32 %16 to i64
  %arrayidx11 = getelementptr [256 x ptr], ptr %ctrls9, i64 0, i64 %idxprom10
  store ptr null, ptr %arrayidx11, align 8
  %17 = load ptr, ptr %sctrl, align 8
  %scid12 = getelementptr inbounds %struct.NvmeSecCtrlEntry, ptr %17, i32 0, i32 0
  store i16 0, ptr %scid12, align 1
  br label %if.end13

if.end13:                                         ; preds = %if.end, %for.body
  br label %for.inc

for.inc:                                          ; preds = %if.end13
  %18 = load i32, ptr %i, align 4
  %inc = add i32 %18, 1
  store i32 %inc, ptr %i, align 4
  br label %for.cond, !llvm.loop !9

for.end:                                          ; preds = %for.cond
  ret void
}

; Function Attrs: nounwind sspstrong uwtable
define internal i32 @pci_is_vf(ptr noundef %d) #0 {
entry:
  %d.addr = alloca ptr, align 8
  store ptr %d, ptr %d.addr, align 8
  %0 = load ptr, ptr %d.addr, align 8
  %exp = getelementptr inbounds %struct.PCIDevice, ptr %0, i32 0, i32 36
  %sriov_vf = getelementptr inbounds %struct.PCIExpressDevice, ptr %exp, i32 0, i32 9
  %pf = getelementptr inbounds %struct.PCIESriovVF, ptr %sriov_vf, i32 0, i32 0
  %1 = load ptr, ptr %pf, align 8
  %cmp = icmp ne ptr %1, null
  %conv = zext i1 %cmp to i32
  ret i32 %conv
}

; Function Attrs: nounwind sspstrong uwtable
define dso_local void @nvme_subsys_unregister_ctrl(ptr noundef %subsys, ptr noundef %n) #0 {
entry:
  %subsys.addr = alloca ptr, align 8
  %n.addr = alloca ptr, align 8
  store ptr %subsys, ptr %subsys.addr, align 8
  store ptr %n, ptr %n.addr, align 8
  %0 = load ptr, ptr %n.addr, align 8
  %parent_obj = getelementptr inbounds %struct.NvmeCtrl, ptr %0, i32 0, i32 0
  %call = call i32 @pci_is_vf(ptr noundef %parent_obj)
  %tobool = icmp ne i32 %call, 0
  br i1 %tobool, label %if.then, label %if.else

if.then:                                          ; preds = %entry
  %1 = load ptr, ptr %subsys.addr, align 8
  %ctrls = getelementptr inbounds %struct.NvmeSubsystem, ptr %1, i32 0, i32 4
  %2 = load ptr, ptr %n.addr, align 8
  %cntlid = getelementptr inbounds %struct.NvmeCtrl, ptr %2, i32 0, i32 6
  %3 = load i16, ptr %cntlid, align 8
  %idxprom = zext i16 %3 to i64
  %arrayidx = getelementptr [256 x ptr], ptr %ctrls, i64 0, i64 %idxprom
  %4 = inttoptr i64 65535 to ptr
  store ptr %4, ptr %arrayidx, align 8
  br label %if.end

if.else:                                          ; preds = %entry
  %5 = load ptr, ptr %subsys.addr, align 8
  %ctrls1 = getelementptr inbounds %struct.NvmeSubsystem, ptr %5, i32 0, i32 4
  %6 = load ptr, ptr %n.addr, align 8
  %cntlid2 = getelementptr inbounds %struct.NvmeCtrl, ptr %6, i32 0, i32 6
  %7 = load i16, ptr %cntlid2, align 8
  %idxprom3 = zext i16 %7 to i64
  %arrayidx4 = getelementptr [256 x ptr], ptr %ctrls1, i64 0, i64 %idxprom3
  store ptr null, ptr %arrayidx4, align 8
  %8 = load ptr, ptr %n.addr, align 8
  call void @nvme_subsys_unreserve_cntlids(ptr noundef %8)
  br label %if.end

if.end:                                           ; preds = %if.else, %if.then
  %9 = load ptr, ptr %n.addr, align 8
  %cntlid5 = getelementptr inbounds %struct.NvmeCtrl, ptr %9, i32 0, i32 6
  store i16 -1, ptr %cntlid5, align 8
  ret void
}