; Function Attrs: nounwind sspstrong uwtable
define dso_local void @nvme_subsys_unregister_ctrl(ptr noundef writeonly captures(none) %subsys, ptr noundef captures(none) %n) local_unnamed_addr #0 {
entry:
  %0 = getelementptr i8, ptr %n, i64 2232
  %n.val = load ptr, ptr %0, align 8
  %cmp.i.not = icmp eq ptr %n.val, null
  %ctrls1 = getelementptr inbounds nuw i8, ptr %subsys, i64 544
  %cntlid2 = getelementptr inbounds nuw i8, ptr %n, i64 7416
  %1 = load i16, ptr %cntlid2, align 8
  %idxprom3 = zext i16 %1 to i64
  %arrayidx4 = getelementptr [256 x ptr], ptr %ctrls1, i64 0, i64 %idxprom3
  br i1 %cmp.i.not, label %if.else, label %if.then

if.then:                                          ; preds = %entry
  store ptr inttoptr (i64 65535 to ptr), ptr %arrayidx4, align 8
  br label %if.end

if.else:                                          ; preds = %entry
  store ptr null, ptr %arrayidx4, align 8
  %sriov_max_vfs.i = getelementptr inbounds nuw i8, ptr %n, i64 7287
  %2 = load i8, ptr %sriov_max_vfs.i, align 1
  %cmp10.not.i = icmp eq i8 %2, 0
  br i1 %cmp10.not.i, label %if.end, label %for.body.lr.ph.i

for.body.lr.ph.i:                                 ; preds = %if.else
  %subsys1.i = getelementptr inbounds nuw i8, ptr %n, i64 7928
  %3 = load ptr, ptr %subsys1.i, align 8
  %sec.i = getelementptr inbounds nuw i8, ptr %n, i64 27800
  %ctrls.i = getelementptr inbounds nuw i8, ptr %3, i64 544
  br label %for.body.i

for.body.i:                                       ; preds = %for.inc.i, %for.body.lr.ph.i
  %4 = phi i8 [ %2, %for.body.lr.ph.i ], [ %7, %for.inc.i ]
  %indvars.iv.i = phi i64 [ 0, %for.body.lr.ph.i ], [ %indvars.iv.next.i, %for.inc.i ]
  %arrayidx.i = getelementptr [127 x %struct.NvmeSecCtrlEntry], ptr %sec.i, i64 0, i64 %indvars.iv.i
  %5 = load i16, ptr %arrayidx.i, align 1
  %tobool.not.i = icmp eq i16 %5, 0
  br i1 %tobool.not.i, label %for.inc.i, label %if.then.i

if.then.i:                                        ; preds = %for.body.i
  %idxprom4.i = zext i16 %5 to i64
  %arrayidx5.i = getelementptr [256 x ptr], ptr %ctrls.i, i64 0, i64 %idxprom4.i
  %6 = load ptr, ptr %arrayidx5.i, align 8
  %cmp6.i = icmp eq ptr %6, inttoptr (i64 65535 to ptr)
  br i1 %cmp6.i, label %if.end.i, label %if.else.i

if.else.i:                                        ; preds = %if.then.i
  tail call void @__assert_fail(ptr noundef nonnull @.str.6, ptr noundef nonnull @.str, i32 noundef 48, ptr noundef nonnull @__PRETTY_FUNCTION__.nvme_subsys_unreserve_cntlids) #8
  unreachable

if.end.i:                                         ; preds = %if.then.i
  store ptr null, ptr %arrayidx5.i, align 8
  store i16 0, ptr %arrayidx.i, align 1
  %.pre.i = load i8, ptr %sriov_max_vfs.i, align 1
  br label %for.inc.i

for.inc.i:                                        ; preds = %if.end.i, %for.body.i
  %7 = phi i8 [ %4, %for.body.i ], [ %.pre.i, %if.end.i ]
  %indvars.iv.next.i = add nuw nsw i64 %indvars.iv.i, 1
  %8 = zext i8 %7 to i64
  %cmp.i6 = icmp samesign ult i64 %indvars.iv.next.i, %8
  br i1 %cmp.i6, label %for.body.i, label %if.end, !llvm.loop !8

if.end:                                           ; preds = %for.inc.i, %if.else, %if.then
  %cntlid5 = getelementptr inbounds nuw i8, ptr %n, i64 7416
  store i16 -1, ptr %cntlid5, align 8
  ret void
}